; Listing generated by Microsoft (R) Optimizing Compiler Version 19.00.23918.0 

	TITLE	C:\Users\chadd\Desktop\CS485_Examples\14_InMemoryObjects\tiger.cpp
	.686P
	.XMM
	include listing.inc
	.model	flat

INCLUDELIB LIBCMT
INCLUDELIB OLDNAMES

PUBLIC	??0tiger@@QAE@H@Z				; tiger::tiger
PUBLIC	?getWeight2@tiger@@UAEHXZ			; tiger::getWeight2
PUBLIC	?hi@tiger@@UAEXXZ				; tiger::hi
PUBLIC	?nonVirtualFunction@tiger@@QAEHXZ		; tiger::nonVirtualFunction
PUBLIC	??_7tiger@@6B@					; tiger::`vftable'
PUBLIC	??_R4tiger@@6B@					; tiger::`RTTI Complete Object Locator'
PUBLIC	??_R0?AVtiger@@@8				; tiger `RTTI Type Descriptor'
PUBLIC	??_R3tiger@@8					; tiger::`RTTI Class Hierarchy Descriptor'
PUBLIC	??_R2tiger@@8					; tiger::`RTTI Base Class Array'
PUBLIC	??_R1A@?0A@EA@tiger@@8				; tiger::`RTTI Base Class Descriptor at (0,-1,0,64)'
PUBLIC	??_R1A@?0A@EA@cat@@8				; cat::`RTTI Base Class Descriptor at (0,-1,0,64)'
PUBLIC	??_R0?AVcat@@@8					; cat `RTTI Type Descriptor'
PUBLIC	??_R3cat@@8					; cat::`RTTI Class Hierarchy Descriptor'
PUBLIC	??_R2cat@@8					; cat::`RTTI Base Class Array'
PUBLIC	??_R1A@?0A@EA@animal@@8				; animal::`RTTI Base Class Descriptor at (0,-1,0,64)'
PUBLIC	??_R0?AVanimal@@@8				; animal `RTTI Type Descriptor'
PUBLIC	??_R3animal@@8					; animal::`RTTI Class Hierarchy Descriptor'
PUBLIC	??_R2animal@@8					; animal::`RTTI Base Class Array'
EXTRN	?eat@animal@@UAEHAAV1@@Z:PROC			; animal::eat
EXTRN	??0cat@@QAE@H@Z:PROC				; cat::cat
EXTRN	?makeSound@cat@@UAEXXZ:PROC			; cat::makeSound
EXTRN	?getTeeth@cat@@UAEHXZ:PROC			; cat::getTeeth
EXTRN	??_7type_info@@6B@:QWORD			; type_info::`vftable'
;	COMDAT ??_R2animal@@8
rdata$r	SEGMENT
??_R2animal@@8 DD FLAT:??_R1A@?0A@EA@animal@@8		; animal::`RTTI Base Class Array'
rdata$r	ENDS
;	COMDAT ??_R3animal@@8
rdata$r	SEGMENT
??_R3animal@@8 DD 00H					; animal::`RTTI Class Hierarchy Descriptor'
	DD	00H
	DD	01H
	DD	FLAT:??_R2animal@@8
rdata$r	ENDS
;	COMDAT ??_R0?AVanimal@@@8
data$r	SEGMENT
??_R0?AVanimal@@@8 DD FLAT:??_7type_info@@6B@		; animal `RTTI Type Descriptor'
	DD	00H
	DB	'.?AVanimal@@', 00H
data$r	ENDS
;	COMDAT ??_R1A@?0A@EA@animal@@8
rdata$r	SEGMENT
??_R1A@?0A@EA@animal@@8 DD FLAT:??_R0?AVanimal@@@8	; animal::`RTTI Base Class Descriptor at (0,-1,0,64)'
	DD	00H
	DD	00H
	DD	0ffffffffH
	DD	00H
	DD	040H
	DD	FLAT:??_R3animal@@8
rdata$r	ENDS
;	COMDAT ??_R2cat@@8
rdata$r	SEGMENT
??_R2cat@@8 DD	FLAT:??_R1A@?0A@EA@cat@@8		; cat::`RTTI Base Class Array'
	DD	FLAT:??_R1A@?0A@EA@animal@@8
rdata$r	ENDS
;	COMDAT ??_R3cat@@8
rdata$r	SEGMENT
??_R3cat@@8 DD	00H					; cat::`RTTI Class Hierarchy Descriptor'
	DD	00H
	DD	02H
	DD	FLAT:??_R2cat@@8
rdata$r	ENDS
;	COMDAT ??_R0?AVcat@@@8
data$r	SEGMENT
??_R0?AVcat@@@8 DD FLAT:??_7type_info@@6B@		; cat `RTTI Type Descriptor'
	DD	00H
	DB	'.?AVcat@@', 00H
data$r	ENDS
;	COMDAT ??_R1A@?0A@EA@cat@@8
rdata$r	SEGMENT
??_R1A@?0A@EA@cat@@8 DD FLAT:??_R0?AVcat@@@8		; cat::`RTTI Base Class Descriptor at (0,-1,0,64)'
	DD	01H
	DD	00H
	DD	0ffffffffH
	DD	00H
	DD	040H
	DD	FLAT:??_R3cat@@8
rdata$r	ENDS
;	COMDAT ??_R1A@?0A@EA@tiger@@8
rdata$r	SEGMENT
??_R1A@?0A@EA@tiger@@8 DD FLAT:??_R0?AVtiger@@@8	; tiger::`RTTI Base Class Descriptor at (0,-1,0,64)'
	DD	02H
	DD	00H
	DD	0ffffffffH
	DD	00H
	DD	040H
	DD	FLAT:??_R3tiger@@8
rdata$r	ENDS
;	COMDAT ??_R2tiger@@8
rdata$r	SEGMENT
??_R2tiger@@8 DD FLAT:??_R1A@?0A@EA@tiger@@8		; tiger::`RTTI Base Class Array'
	DD	FLAT:??_R1A@?0A@EA@cat@@8
	DD	FLAT:??_R1A@?0A@EA@animal@@8
rdata$r	ENDS
;	COMDAT ??_R3tiger@@8
rdata$r	SEGMENT
??_R3tiger@@8 DD 00H					; tiger::`RTTI Class Hierarchy Descriptor'
	DD	00H
	DD	03H
	DD	FLAT:??_R2tiger@@8
rdata$r	ENDS
;	COMDAT ??_R0?AVtiger@@@8
data$r	SEGMENT
??_R0?AVtiger@@@8 DD FLAT:??_7type_info@@6B@		; tiger `RTTI Type Descriptor'
	DD	00H
	DB	'.?AVtiger@@', 00H
data$r	ENDS
;	COMDAT ??_R4tiger@@6B@
rdata$r	SEGMENT
??_R4tiger@@6B@ DD 00H					; tiger::`RTTI Complete Object Locator'
	DD	00H
	DD	00H
	DD	FLAT:??_R0?AVtiger@@@8
	DD	FLAT:??_R3tiger@@8
rdata$r	ENDS
;	COMDAT ??_7tiger@@6B@
CONST	SEGMENT
??_7tiger@@6B@ DD FLAT:??_R4tiger@@6B@			; tiger::`vftable'
	DD	FLAT:?eat@animal@@UAEHAAV1@@Z
	DD	FLAT:?makeSound@cat@@UAEXXZ
	DD	FLAT:?getWeight2@tiger@@UAEHXZ
	DD	FLAT:?hi@tiger@@UAEXXZ
	DD	FLAT:?getTeeth@cat@@UAEHXZ
CONST	ENDS
; Function compile flags: /Odtp
; File c:\users\chadd\desktop\cs485_examples\14_inmemoryobjects\tiger.cpp
_TEXT	SEGMENT
_this$ = -4						; size = 4
?nonVirtualFunction@tiger@@QAEHXZ PROC			; tiger::nonVirtualFunction
; _this$ = ecx

; 17   : {

  00000	55		 push	 ebp
  00001	8b ec		 mov	 ebp, esp
  00003	51		 push	 ecx
  00004	89 4d fc	 mov	 DWORD PTR _this$[ebp], ecx

; 18   :   return 0;

  00007	33 c0		 xor	 eax, eax

; 19   : }

  00009	8b e5		 mov	 esp, ebp
  0000b	5d		 pop	 ebp
  0000c	c3		 ret	 0
?nonVirtualFunction@tiger@@QAEHXZ ENDP			; tiger::nonVirtualFunction
_TEXT	ENDS
; Function compile flags: /Odtp
; File c:\users\chadd\desktop\cs485_examples\14_inmemoryobjects\tiger.cpp
_TEXT	SEGMENT
_this$ = -4						; size = 4
?hi@tiger@@UAEXXZ PROC					; tiger::hi
; _this$ = ecx

; 13   : {

  00000	55		 push	 ebp
  00001	8b ec		 mov	 ebp, esp
  00003	51		 push	 ecx
  00004	89 4d fc	 mov	 DWORD PTR _this$[ebp], ecx

; 14   : }

  00007	8b e5		 mov	 esp, ebp
  00009	5d		 pop	 ebp
  0000a	c3		 ret	 0
?hi@tiger@@UAEXXZ ENDP					; tiger::hi
_TEXT	ENDS
; Function compile flags: /Odtp
; File c:\users\chadd\desktop\cs485_examples\14_inmemoryobjects\tiger.cpp
_TEXT	SEGMENT
_this$ = -4						; size = 4
?getWeight2@tiger@@UAEHXZ PROC				; tiger::getWeight2
; _this$ = ecx

; 8    : {

  00000	55		 push	 ebp
  00001	8b ec		 mov	 ebp, esp
  00003	51		 push	 ecx
  00004	89 4d fc	 mov	 DWORD PTR _this$[ebp], ecx

; 9    :   return 2;

  00007	b8 02 00 00 00	 mov	 eax, 2

; 10   : }

  0000c	8b e5		 mov	 esp, ebp
  0000e	5d		 pop	 ebp
  0000f	c3		 ret	 0
?getWeight2@tiger@@UAEHXZ ENDP				; tiger::getWeight2
_TEXT	ENDS
; Function compile flags: /Odtp
; File c:\users\chadd\desktop\cs485_examples\14_inmemoryobjects\tiger.cpp
_TEXT	SEGMENT
_this$ = -4						; size = 4
_w$ = 8							; size = 4
??0tiger@@QAE@H@Z PROC					; tiger::tiger
; _this$ = ecx

; 4    : {

  00000	55		 push	 ebp
  00001	8b ec		 mov	 ebp, esp
  00003	51		 push	 ecx
  00004	89 4d fc	 mov	 DWORD PTR _this$[ebp], ecx

; 3    : tiger::tiger (int w) : cat(w)

  00007	8b 45 08	 mov	 eax, DWORD PTR _w$[ebp]
  0000a	50		 push	 eax
  0000b	8b 4d fc	 mov	 ecx, DWORD PTR _this$[ebp]
  0000e	e8 00 00 00 00	 call	 ??0cat@@QAE@H@Z		; cat::cat

; 4    : {

  00013	8b 4d fc	 mov	 ecx, DWORD PTR _this$[ebp]
  00016	c7 01 00 00 00
	00		 mov	 DWORD PTR [ecx], OFFSET ??_7tiger@@6B@

; 5    : }

  0001c	8b 45 fc	 mov	 eax, DWORD PTR _this$[ebp]
  0001f	8b e5		 mov	 esp, ebp
  00021	5d		 pop	 ebp
  00022	c2 04 00	 ret	 4
??0tiger@@QAE@H@Z ENDP					; tiger::tiger
_TEXT	ENDS
END
